target datalayout = "e-m:e-p270:32:32-p271:32:32-p272:64:64-i64:64-i128:128-f80:128-n8:16:32:64-S128"
target triple = "x86_64-pc-linux-gnu"

%struct.BTMetaPageData = type { i32, i32, i32, i32, i32, i32, i32, double, i8 }
%struct.PageHeaderData = type { %struct.PageXLogRecPtr, i16, i16, i16, i16, i16, i16, i32, [0 x %struct.ItemIdData] }
%struct.PageXLogRecPtr = type { i32, i32 }
%struct.ItemIdData = type { i32 }
%struct.BTPageOpaqueData = type { i32, i32, i32, i16, i16 }
%struct.RelationData = type { %struct.RelFileLocator, ptr, i32, i32, i8, i8, i8, i8, i8, i32, i32, i32, i32, ptr, ptr, i32, %struct.LockInfoData, ptr, ptr, ptr, ptr, ptr, i8, ptr, ptr, ptr, ptr, ptr, ptr, i32, ptr, i8, ptr, ptr, i32, i8, i32, ptr, i8, ptr, ptr, ptr, ptr, ptr, ptr, ptr, i32, ptr, ptr, ptr, ptr, ptr, ptr, ptr, ptr, ptr, ptr, ptr, ptr, ptr, ptr, ptr, ptr, ptr, ptr, ptr, i32, i8, ptr }
%struct.RelFileLocator = type { i32, i32, i32 }
%struct.LockInfoData = type { %struct.LockRelId }
%struct.LockRelId = type { i32, i32 }
%struct.FormData_pg_class = type { i32, %struct.nameData, i32, i32, i32, i32, i32, i32, i32, i32, float, i32, i32, i8, i8, i8, i8, i16, i16, i8, i8, i8, i8, i8, i8, i8, i8, i32, i32, i32 }
%struct.nameData = type { [64 x i8] }

@.str.1 = private unnamed_addr constant [10 x i8] c"nbtpage.c\00", align 1
@.str.3 = private unnamed_addr constant [26 x i8] c"index \22%s\22 is not a btree\00", align 1
@.str.4 = private unnamed_addr constant [98 x i8] c"version mismatch in index \22%s\22: file version %d, current version %d, minimal supported version %d\00", align 1
@LocalBufferBlockPointers = external global ptr, align 8
@BufferBlocks = external global ptr, align 8
@__func__._bt_getmeta = private unnamed_addr constant [12 x i8] c"_bt_getmeta\00", align 1

; Function Attrs: inlinehint nounwind uwtable
define internal ptr @BufferGetBlock(i32 noundef %0) #2 {
  %2 = alloca ptr, align 8
  %3 = alloca i32, align 4
  store i32 %0, ptr %3, align 4
  %4 = load i32, ptr %3, align 4
  %5 = icmp slt i32 %4, 0
  br i1 %5, label %6, label %14

6:                                                ; preds = %1
  %7 = load ptr, ptr @LocalBufferBlockPointers, align 8
  %8 = load i32, ptr %3, align 4
  %9 = sub i32 0, %8
  %10 = sub i32 %9, 1
  %11 = sext i32 %10 to i64
  %12 = getelementptr inbounds ptr, ptr %7, i64 %11
  %13 = load ptr, ptr %12, align 8
  store ptr %13, ptr %2, align 8
  br label %21

14:                                               ; preds = %1
  %15 = load ptr, ptr @BufferBlocks, align 8
  %16 = load i32, ptr %3, align 4
  %17 = sub i32 %16, 1
  %18 = sext i32 %17 to i64
  %19 = mul i64 %18, 8192
  %20 = getelementptr inbounds nuw i8, ptr %15, i64 %19
  store ptr %20, ptr %2, align 8
  br label %21

21:                                               ; preds = %14, %6
  %22 = load ptr, ptr %2, align 8
  ret ptr %22
}

; Function Attrs: inlinehint nounwind uwtable
define internal ptr @PageGetContents(ptr noundef %0) #2 {
  %2 = alloca ptr, align 8
  store ptr %0, ptr %2, align 8
  %3 = load ptr, ptr %2, align 8
  %4 = getelementptr inbounds nuw i8, ptr %3, i64 24
  ret ptr %4
}

; Function Attrs: inlinehint nounwind uwtable
define internal void @PageValidateSpecialPointer(ptr noundef %0) #2 {
  %2 = alloca ptr, align 8
  store ptr %0, ptr %2, align 8
  ret void
}

; Function Attrs: inlinehint nounwind uwtable
define internal ptr @BufferGetPage(i32 noundef %0) #2 {
  %2 = alloca i32, align 4
  store i32 %0, ptr %2, align 4
  %3 = load i32, ptr %2, align 4
  %4 = call ptr @BufferGetBlock(i32 noundef %3)
  ret ptr %4
}

; Function Attrs: nounwind uwtable
define internal ptr @_bt_getmeta(ptr noundef %0, i32 noundef %1) #0 {
  %3 = alloca ptr, align 8
  %4 = alloca i32, align 4
  %5 = alloca ptr, align 8
  %6 = alloca ptr, align 8
  %7 = alloca ptr, align 8
  store ptr %0, ptr %3, align 8
  store i32 %1, ptr %4, align 4
  call void @llvm.lifetime.start.p0(i64 8, ptr %5) #8
  call void @llvm.lifetime.start.p0(i64 8, ptr %6) #8
  call void @llvm.lifetime.start.p0(i64 8, ptr %7) #8
  %8 = load i32, ptr %4, align 4
  %9 = call ptr @BufferGetPage(i32 noundef %8)
  store ptr %9, ptr %5, align 8
  %10 = load ptr, ptr %5, align 8
  call void @PageValidateSpecialPointer(ptr noundef %10)
  %11 = load ptr, ptr %5, align 8
  %12 = load ptr, ptr %5, align 8
  %13 = getelementptr inbounds nuw %struct.PageHeaderData, ptr %12, i32 0, i32 5
  %14 = load i16, ptr %13, align 4
  %15 = zext i16 %14 to i32
  %16 = sext i32 %15 to i64
  %17 = getelementptr inbounds i8, ptr %11, i64 %16
  store ptr %17, ptr %6, align 8
  %18 = load ptr, ptr %5, align 8
  %19 = call ptr @PageGetContents(ptr noundef %18)
  store ptr %19, ptr %7, align 8
  %20 = load ptr, ptr %6, align 8
  %21 = getelementptr inbounds nuw %struct.BTPageOpaqueData, ptr %20, i32 0, i32 3
  %22 = load i16, ptr %21, align 4
  %23 = zext i16 %22 to i32
  %24 = and i32 %23, 8
  %25 = icmp ne i32 %24, 0
  br i1 %25, label %26, label %31

26:                                               ; preds = %2
  %27 = load ptr, ptr %7, align 8
  %28 = getelementptr inbounds nuw %struct.BTMetaPageData, ptr %27, i32 0, i32 0
  %29 = load i32, ptr %28, align 8
  %30 = icmp ne i32 %29, 340322
  br i1 %30, label %31, label %49

31:                                               ; preds = %26, %2
  br label %32

32:                                               ; preds = %31
  br i1 true, label %33, label %35

33:                                               ; preds = %32
  %34 = call zeroext i1 @errstart_cold(i32 noundef 21, ptr noundef null) #9
  br i1 %34, label %37, label %46

35:                                               ; preds = %32
  %36 = call zeroext i1 @errstart(i32 noundef 21, ptr noundef null)
  br i1 %36, label %37, label %46

37:                                               ; preds = %35, %33
  %38 = call i32 @errcode(i32 noundef 33557032)
  %39 = load ptr, ptr %3, align 8
  %40 = getelementptr inbounds nuw %struct.RelationData, ptr %39, i32 0, i32 13
  %41 = load ptr, ptr %40, align 8
  %42 = getelementptr inbounds nuw %struct.FormData_pg_class, ptr %41, i32 0, i32 1
  %43 = getelementptr inbounds nuw %struct.nameData, ptr %42, i32 0, i32 0
  %44 = getelementptr inbounds [64 x i8], ptr %43, i64 0, i64 0
  %45 = call i32 (ptr, ...) @errmsg(ptr noundef @.str.3, ptr noundef %44)
  call void @errfinish(ptr noundef @.str.1, i32 noundef 158, ptr noundef @__func__._bt_getmeta)
  br label %46

46:                                               ; preds = %37, %35, %33
  unreachable

47:                                               ; No predecessors!
  br label %48

48:                                               ; preds = %47
  br label %49

49:                                               ; preds = %48, %26
  %50 = load ptr, ptr %7, align 8
  %51 = getelementptr inbounds nuw %struct.BTMetaPageData, ptr %50, i32 0, i32 1
  %52 = load i32, ptr %51, align 4
  %53 = icmp ult i32 %52, 2
  br i1 %53, label %59, label %54

54:                                               ; preds = %49
  %55 = load ptr, ptr %7, align 8
  %56 = getelementptr inbounds nuw %struct.BTMetaPageData, ptr %55, i32 0, i32 1
  %57 = load i32, ptr %56, align 4
  %58 = icmp ugt i32 %57, 4
  br i1 %58, label %59, label %80

59:                                               ; preds = %54, %49
  br label %60

60:                                               ; preds = %59
  br i1 true, label %61, label %63

61:                                               ; preds = %60
  %62 = call zeroext i1 @errstart_cold(i32 noundef 21, ptr noundef null) #9
  br i1 %62, label %65, label %77

63:                                               ; preds = %60
  %64 = call zeroext i1 @errstart(i32 noundef 21, ptr noundef null)
  br i1 %64, label %65, label %77

65:                                               ; preds = %63, %61
  %66 = call i32 @errcode(i32 noundef 33557032)
  %67 = load ptr, ptr %3, align 8
  %68 = getelementptr inbounds nuw %struct.RelationData, ptr %67, i32 0, i32 13
  %69 = load ptr, ptr %68, align 8
  %70 = getelementptr inbounds nuw %struct.FormData_pg_class, ptr %69, i32 0, i32 1
  %71 = getelementptr inbounds nuw %struct.nameData, ptr %70, i32 0, i32 0
  %72 = getelementptr inbounds [64 x i8], ptr %71, i64 0, i64 0
  %73 = load ptr, ptr %7, align 8
  %74 = getelementptr inbounds nuw %struct.BTMetaPageData, ptr %73, i32 0, i32 1
  %75 = load i32, ptr %74, align 4
  %76 = call i32 (ptr, ...) @errmsg(ptr noundef @.str.4, ptr noundef %72, i32 noundef %75, i32 noundef 4, i32 noundef 2)
  call void @errfinish(ptr noundef @.str.1, i32 noundef 167, ptr noundef @__func__._bt_getmeta)
  br label %77

77:                                               ; preds = %65, %63, %61
  unreachable

78:                                               ; No predecessors!
  br label %79

79:                                               ; preds = %78
  br label %80

80:                                               ; preds = %79, %54
  %81 = load ptr, ptr %7, align 8
  call void @llvm.lifetime.end.p0(i64 8, ptr %7) #8
  call void @llvm.lifetime.end.p0(i64 8, ptr %6) #8
  call void @llvm.lifetime.end.p0(i64 8, ptr %5) #8
  ret ptr %81
}