; Function Attrs: nounwind uwtable
define internal fastcc nonnull ptr @_bt_getmeta(ptr noundef readonly captures(none) %0, i32 noundef %1) unnamed_addr #0 {
  %3 = icmp slt i32 %1, 0
  br i1 %3, label %4, label %10

4:                                                ; preds = %2
  %5 = load ptr, ptr @LocalBufferBlockPointers, align 8
  %6 = xor i32 %1, -1
  %7 = zext nneg i32 %6 to i64
  %8 = getelementptr inbounds nuw ptr, ptr %5, i64 %7
  %9 = load ptr, ptr %8, align 8
  br label %BufferGetPage.exit

10:                                               ; preds = %2
  %11 = load ptr, ptr @BufferBlocks, align 8
  %12 = add nsw i32 %1, -1
  %13 = sext i32 %12 to i64
  %14 = shl nsw i64 %13, 13
  %15 = getelementptr inbounds nuw i8, ptr %11, i64 %14
  br label %BufferGetPage.exit

BufferGetPage.exit:                               ; preds = %4, %10
  %.0.i.i = phi ptr [ %9, %4 ], [ %15, %10 ]
  %16 = getelementptr inbounds nuw i8, ptr %.0.i.i, i64 16
  %17 = load i16, ptr %16, align 4
  %18 = zext i16 %17 to i64
  %19 = getelementptr inbounds nuw i8, ptr %.0.i.i, i64 %18
  %20 = getelementptr inbounds nuw i8, ptr %.0.i.i, i64 24
  %21 = getelementptr inbounds nuw i8, ptr %19, i64 12
  %22 = load i16, ptr %21, align 4
  %23 = and i16 %22, 8
  %.not = icmp eq i16 %23, 0
  br i1 %.not, label %26, label %24

24:                                               ; preds = %BufferGetPage.exit
  %25 = load i32, ptr %20, align 8
  %.not12 = icmp eq i32 %25, 340322
  br i1 %.not12, label %33, label %26

26:                                               ; preds = %24, %BufferGetPage.exit
  %27 = tail call zeroext i1 @errstart_cold(i32 noundef 21, ptr noundef null) #11
  tail call void @llvm.assume(i1 %27)
  %28 = tail call i32 @errcode(i32 noundef 33557032) #10
  %29 = getelementptr inbounds nuw i8, ptr %0, i64 56
  %30 = load ptr, ptr %29, align 8
  %31 = getelementptr inbounds nuw i8, ptr %30, i64 4
  %32 = tail call i32 (ptr, ...) @errmsg(ptr noundef nonnull @.str.3, ptr noundef nonnull %31) #10
  tail call void @errfinish(ptr noundef nonnull @.str.1, i32 noundef 158, ptr noundef nonnull @__func__._bt_getmeta) #10
  unreachable

33:                                               ; preds = %24
  %34 = getelementptr inbounds nuw i8, ptr %.0.i.i, i64 28
  %35 = load i32, ptr %34, align 4
  %36 = add i32 %35, -5
  %or.cond = icmp ult i32 %36, -3
  br i1 %or.cond, label %37, label %45

37:                                               ; preds = %33
  %38 = tail call zeroext i1 @errstart_cold(i32 noundef 21, ptr noundef null) #11
  tail call void @llvm.assume(i1 %38)
  %39 = tail call i32 @errcode(i32 noundef 33557032) #10
  %40 = getelementptr inbounds nuw i8, ptr %0, i64 56
  %41 = load ptr, ptr %40, align 8
  %42 = getelementptr inbounds nuw i8, ptr %41, i64 4
  %43 = load i32, ptr %34, align 4
  %44 = tail call i32 (ptr, ...) @errmsg(ptr noundef nonnull @.str.4, ptr noundef nonnull %42, i32 noundef %43, i32 noundef 4, i32 noundef 2) #10
  tail call void @errfinish(ptr noundef nonnull @.str.1, i32 noundef 167, ptr noundef nonnull @__func__._bt_getmeta) #10
  unreachable

45:                                               ; preds = %33
  ret ptr %20
}